; Function Attrs: nounwind uwtable
define void @Abc_TtStoreWrite(ptr noundef %0, ptr noundef readonly captures(none) %1, i32 noundef %2) local_unnamed_addr #9 {
  %4 = alloca [1000 x i8], align 16
  call void @llvm.lifetime.start.p0(i64 1000, ptr nonnull %4) #21
  %5 = load i32, ptr %1, align 8, !tbaa !11
  %6 = icmp slt i32 %5, 7
  %7 = add nsw i32 %5, -6
  %8 = shl i32 8, %7
  %9 = select i1 %6, i32 8, i32 %8
  %10 = tail call noalias ptr @fopen(ptr noundef %0, ptr noundef nonnull @.str.4)
  %11 = icmp eq ptr %10, null
  br i1 %11, label %51, label %.preheader

.preheader:                                       ; preds = %3
  %12 = getelementptr inbounds nuw i8, ptr %1, i64 8
  %13 = load i32, ptr %12, align 8, !tbaa !17
  %14 = icmp sgt i32 %13, 0
  br i1 %14, label %.lr.ph, label %._crit_edge

.lr.ph:                                           ; preds = %.preheader
  %.not = icmp eq i32 %2, 0
  %15 = getelementptr inbounds nuw i8, ptr %1, i64 16
  %16 = sext i32 %9 to i64
  br i1 %.not, label %.lr.ph.split.us, label %.lr.ph.split

.lr.ph.split.us:                                  ; preds = %.lr.ph, %Abc_TruthWriteHex.exit.us
  %indvars.iv26 = phi i64 [ %indvars.iv.next27, %Abc_TruthWriteHex.exit.us ], [ 0, %.lr.ph ]
  %17 = load ptr, ptr %15, align 8, !tbaa !18
  %18 = getelementptr inbounds nuw ptr, ptr %17, i64 %indvars.iv26
  %19 = load ptr, ptr %18, align 8, !tbaa !19
  %20 = load i32, ptr %1, align 8, !tbaa !11
  %21 = add nsw i32 %20, -2
  %.not.i.us = icmp eq i32 %21, 31
  br i1 %.not.i.us, label %Abc_TruthWriteHex.exit.us, label %.lr.ph.preheader.i.us

.lr.ph.preheader.i.us:                            ; preds = %.lr.ph.split.us
  %22 = shl nuw i32 1, %21
  %smax.i.us = call i32 @llvm.smax.i32(i32 %22, i32 1)
  br label %.lr.ph.i.us

.lr.ph.i.us:                                      ; preds = %Abc_TruthWriteHexDigit.exit.i.us, %.lr.ph.preheader.i.us
  %.07.i.us = phi i32 [ %38, %Abc_TruthWriteHexDigit.exit.i.us ], [ 0, %.lr.ph.preheader.i.us ]
  %23 = lshr i32 %.07.i.us, 4
  %24 = zext nneg i32 %23 to i64
  %25 = getelementptr inbounds nuw i64, ptr %19, i64 %24
  %26 = load i64, ptr %25, align 8, !tbaa !6
  %27 = shl i32 %.07.i.us, 2
  %28 = and i32 %27, 60
  %29 = zext nneg i32 %28 to i64
  %30 = lshr i64 %26, %29
  %31 = trunc i64 %30 to i32
  %32 = and i32 %31, 15
  %33 = icmp samesign ult i32 %32, 10
  br i1 %33, label %36, label %34

34:                                               ; preds = %.lr.ph.i.us
  %35 = add nuw nsw i32 %32, 55
  %fputc.i.i.us = call i32 @fputc(i32 %35, ptr nonnull %10)
  br label %Abc_TruthWriteHexDigit.exit.i.us

36:                                               ; preds = %.lr.ph.i.us
  %37 = call i32 (ptr, ptr, ...) @fprintf(ptr noundef nonnull %10, ptr noundef nonnull @.str.29, i32 noundef range(i32 0, 16) %32) #21
  br label %Abc_TruthWriteHexDigit.exit.i.us

Abc_TruthWriteHexDigit.exit.i.us:                 ; preds = %36, %34
  %38 = add nuw nsw i32 %.07.i.us, 1
  %exitcond.not.i.us = icmp eq i32 %38, %smax.i.us
  br i1 %exitcond.not.i.us, label %Abc_TruthWriteHex.exit.us, label %.lr.ph.i.us, !llvm.loop !10

Abc_TruthWriteHex.exit.us:                        ; preds = %Abc_TruthWriteHexDigit.exit.i.us, %.lr.ph.split.us
  %39 = call i64 @fwrite(ptr nonnull @.str.6, i64 4, i64 1, ptr nonnull %10)
  %40 = load ptr, ptr %15, align 8, !tbaa !18
  %41 = getelementptr inbounds nuw ptr, ptr %40, i64 %indvars.iv26
  %42 = load ptr, ptr %41, align 8, !tbaa !19
  %43 = load i32, ptr %1, align 8, !tbaa !11
  %44 = icmp slt i32 %43, 11
  %45 = zext i1 %44 to i32
  %46 = call i32 @Dau_DsdDecompose(ptr noundef %42, i32 noundef %43, i32 noundef 0, i32 noundef %45, ptr noundef nonnull %4) #21
  %47 = call i32 (ptr, ptr, ...) @fprintf(ptr noundef nonnull %10, ptr noundef nonnull @.str.7, ptr noundef nonnull %4) #21
  %indvars.iv.next27 = add nuw nsw i64 %indvars.iv26, 1
  %48 = load i32, ptr %12, align 8, !tbaa !17
  %49 = sext i32 %48 to i64
  %50 = icmp slt i64 %indvars.iv.next27, %49
  br i1 %50, label %.lr.ph.split.us, label %._crit_edge, !llvm.loop !29

51:                                               ; preds = %3
  %52 = tail call i32 (ptr, ...) @printf(ptr noundef nonnull dereferenceable(1) @.str.5, ptr noundef %0)
  br label %61

.lr.ph.split:                                     ; preds = %.lr.ph, %.lr.ph.split
  %indvars.iv = phi i64 [ %indvars.iv.next, %.lr.ph.split ], [ 0, %.lr.ph ]
  %53 = load ptr, ptr %15, align 8, !tbaa !18
  %54 = getelementptr inbounds nuw ptr, ptr %53, i64 %indvars.iv
  %55 = load ptr, ptr %54, align 8, !tbaa !19
  %56 = tail call i64 @fwrite(ptr noundef %55, i64 noundef %16, i64 noundef 1, ptr noundef nonnull %10)
  %indvars.iv.next = add nuw nsw i64 %indvars.iv, 1
  %57 = load i32, ptr %12, align 8, !tbaa !17
  %58 = sext i32 %57 to i64
  %59 = icmp slt i64 %indvars.iv.next, %58
  br i1 %59, label %.lr.ph.split, label %._crit_edge, !llvm.loop !29

._crit_edge:                                      ; preds = %.lr.ph.split, %Abc_TruthWriteHex.exit.us, %.preheader
  %60 = call i32 @fclose(ptr noundef nonnull %10)
  br label %61

61:                                               ; preds = %._crit_edge, %51
  call void @llvm.lifetime.end.p0(i64 1000, ptr nonnull %4) #21
  ret void
}